target datalayout = "e-m:e-p270:32:32-p271:32:32-p272:64:64-i64:64-i128:128-f80:128-n8:16:32:64-S128"
target triple = "x86_64-pc-linux-gnu"

%struct.xlist = type { i32, i32, ptr, ptr, ptr, ptr, %union.pthread_rwlock_t, ptr, ptr, [0 x %struct.listNode] }
%union.pthread_rwlock_t = type { %struct.__pthread_rwlock_arch_t }
%struct.__pthread_rwlock_arch_t = type { i32, i32, i32, i32, i32, i32, i32, i32, i8, [7 x i8], i64, i32 }
%struct.listNode = type { ptr, ptr }
%struct.listIterator = type { i32, ptr, ptr, ptr, ptr }

@.str.3 = private unnamed_addr constant [32 x i8] c"%s: pthread_rwlock_unlock(): %m\00", align 1
@.str.5 = private unnamed_addr constant [32 x i8] c"%s: pthread_rwlock_rdlock(): %m\00", align 1
@__func__.list_peek_next = private unnamed_addr constant [15 x i8] c"list_peek_next\00", align 1

; Function Attrs: nounwind uwtable
define dso_local ptr @list_peek_next(ptr noundef %0) #0 {
  %2 = alloca ptr, align 8
  %3 = alloca ptr, align 8
  %4 = alloca i32, align 4
  %5 = alloca i32, align 4
  store ptr %0, ptr %2, align 8
  call void @llvm.lifetime.start.p0(i64 8, ptr %3) #6
  br label %6

6:                                                ; preds = %1
  call void @llvm.lifetime.start.p0(i64 4, ptr %4) #6
  %7 = load ptr, ptr %2, align 8
  %8 = getelementptr inbounds nuw %struct.listIterator, ptr %7, i32 0, i32 1
  %9 = load ptr, ptr %8, align 8
  %10 = getelementptr inbounds nuw %struct.xlist, ptr %9, i32 0, i32 6
  %11 = call i32 @pthread_rwlock_rdlock(ptr noundef %10) #6
  store i32 %11, ptr %4, align 4
  %12 = load i32, ptr %4, align 4
  %13 = icmp ne i32 %12, 0
  br i1 %13, label %14, label %17

14:                                               ; preds = %6
  %15 = load i32, ptr %4, align 4
  %16 = call ptr @__errno_location() #7
  store i32 %15, ptr %16, align 4
  call void (ptr, ...) @fatal_abort(ptr noundef @.str.5, ptr noundef @__func__.list_peek_next) #8
  unreachable

17:                                               ; preds = %6
  call void @llvm.lifetime.end.p0(i64 4, ptr %4) #6
  br label %18

18:                                               ; preds = %17
  br label %19

19:                                               ; preds = %18
  %20 = load ptr, ptr %2, align 8
  %21 = getelementptr inbounds nuw %struct.listIterator, ptr %20, i32 0, i32 2
  %22 = load ptr, ptr %21, align 8
  store ptr %22, ptr %3, align 8
  br label %23

23:                                               ; preds = %19
  call void @llvm.lifetime.start.p0(i64 4, ptr %5) #6
  %24 = load ptr, ptr %2, align 8
  %25 = getelementptr inbounds nuw %struct.listIterator, ptr %24, i32 0, i32 1
  %26 = load ptr, ptr %25, align 8
  %27 = getelementptr inbounds nuw %struct.xlist, ptr %26, i32 0, i32 6
  %28 = call i32 @pthread_rwlock_unlock(ptr noundef %27) #6
  store i32 %28, ptr %5, align 4
  %29 = load i32, ptr %5, align 4
  %30 = icmp ne i32 %29, 0
  br i1 %30, label %31, label %34

31:                                               ; preds = %23
  %32 = load i32, ptr %5, align 4
  %33 = call ptr @__errno_location() #7
  store i32 %32, ptr %33, align 4
  call void (ptr, ...) @fatal_abort(ptr noundef @.str.3, ptr noundef @__func__.list_peek_next) #8
  unreachable

34:                                               ; preds = %23
  call void @llvm.lifetime.end.p0(i64 4, ptr %5) #6
  br label %35

35:                                               ; preds = %34
  br label %36

36:                                               ; preds = %35
  %37 = load ptr, ptr %3, align 8
  %38 = icmp ne ptr %37, null
  br i1 %38, label %39, label %43

39:                                               ; preds = %36
  %40 = load ptr, ptr %3, align 8
  %41 = getelementptr inbounds nuw %struct.listNode, ptr %40, i32 0, i32 0
  %42 = load ptr, ptr %41, align 8
  br label %44

43:                                               ; preds = %36
  br label %44

44:                                               ; preds = %43, %39
  %45 = phi ptr [ %42, %39 ], [ null, %43 ]
  call void @llvm.lifetime.end.p0(i64 8, ptr %3) #6
  ret ptr %45
}