; Function Attrs: nounwind uwtable
define dso_local ptr @list_peek_next(ptr noundef readonly captures(none) %0) local_unnamed_addr #0 {
  %2 = getelementptr inbounds nuw i8, ptr %0, i64 8
  %3 = load ptr, ptr %2, align 8
  %4 = getelementptr inbounds nuw i8, ptr %3, i64 40
  %5 = tail call i32 @pthread_rwlock_rdlock(ptr noundef nonnull %4) #9
  %.not = icmp eq i32 %5, 0
  br i1 %.not, label %8, label %6

6:                                                ; preds = %1
  %7 = tail call ptr @__errno_location() #10
  store i32 %5, ptr %7, align 4
  tail call void (ptr, ...) @fatal_abort(ptr noundef nonnull @.str.5, ptr noundef nonnull @__func__.list_peek_next) #11
  unreachable

8:                                                ; preds = %1
  %9 = getelementptr inbounds nuw i8, ptr %0, i64 16
  %10 = load ptr, ptr %9, align 8
  %11 = load ptr, ptr %2, align 8
  %12 = getelementptr inbounds nuw i8, ptr %11, i64 40
  %13 = tail call i32 @pthread_rwlock_unlock(ptr noundef nonnull %12) #9
  %.not10 = icmp eq i32 %13, 0
  br i1 %.not10, label %16, label %14

14:                                               ; preds = %8
  %15 = tail call ptr @__errno_location() #10
  store i32 %13, ptr %15, align 4
  tail call void (ptr, ...) @fatal_abort(ptr noundef nonnull @.str.3, ptr noundef nonnull @__func__.list_peek_next) #11
  unreachable

16:                                               ; preds = %8
  %.not11 = icmp eq ptr %10, null
  br i1 %.not11, label %19, label %17

17:                                               ; preds = %16
  %18 = load ptr, ptr %10, align 8
  br label %19

19:                                               ; preds = %16, %17
  %20 = phi ptr [ %18, %17 ], [ null, %16 ]
  ret ptr %20
}